(lp0
(lp1
F0.9178387760649469
aF-0.0019978038755115095
aF-0.39694834667910617
aF37.783979957273445
aa(lp2
F-0.014733649215529804
aF0.9991268219414534
aF-0.03909620516066788
aF6.339509279174725
aa(lp3
F0.39667984664259753
aF0.04173251079010594
aF0.9170079044429001
aF-174.91075442088874
aa(lp4
F0.0
aF0.0
aF0.0
aF1.0
aa.